target datalayout = "e-m:e-p270:32:32-p271:32:32-p272:64:64-i64:64-i128:128-f80:128-n8:16:32:64-S128"
target triple = "x86_64-pc-linux-gnu"

; Function Attrs: nounwind sspstrong uwtable
define ptr @ossl_protect_x509_ary2sk(i64 noundef %0, ptr noundef %1) #0 {
  %3 = alloca i64, align 8
  %4 = alloca ptr, align 8
  store i64 %0, ptr %3, align 8, !tbaa !6
  store ptr %1, ptr %4, align 8, !tbaa !23
  %5 = load i64, ptr %3, align 8, !tbaa !6
  %6 = load ptr, ptr %4, align 8, !tbaa !23
  %7 = call i64 @rb_protect(ptr noundef @ossl_x509_ary2sk0, i64 noundef %5, ptr noundef %6)
  %8 = inttoptr i64 %7 to ptr
  ret ptr %8
}

; Function Attrs: nounwind sspstrong uwtable
define ptr @ossl_x509_ary2sk(i64 noundef %0) #0 {
  %2 = alloca i64, align 8
  %3 = alloca ptr, align 8
  %4 = alloca i32, align 4
  store i64 %0, ptr %2, align 8, !tbaa !6
  call void @llvm.lifetime.start.p0(i64 8, ptr %3) #22
  call void @llvm.lifetime.start.p0(i64 4, ptr %4) #22
  store i32 0, ptr %4, align 4, !tbaa !13
  %5 = load i64, ptr %2, align 8, !tbaa !6
  %6 = call ptr @ossl_protect_x509_ary2sk(i64 noundef %5, ptr noundef %4)
  store ptr %6, ptr %3, align 8, !tbaa !10
  %7 = load i32, ptr %4, align 4, !tbaa !13
  %8 = icmp ne i32 %7, 0
  br i1 %8, label %9, label %11

9:                                                ; preds = %1
  %10 = load i32, ptr %4, align 4, !tbaa !13
  call void @rb_jump_tag(i32 noundef %10) #23
  unreachable

11:                                               ; preds = %1
  %12 = load ptr, ptr %3, align 8, !tbaa !10
  call void @llvm.lifetime.end.p0(i64 4, ptr %4) #22
  call void @llvm.lifetime.end.p0(i64 8, ptr %3) #22
  ret ptr %12
}