; Function Attrs: nounwind sspstrong uwtable
define ptr @ossl_x509_ary2sk(i64 noundef %0) local_unnamed_addr #0 {
  %2 = alloca i32, align 4
  call void @llvm.lifetime.start.p0(i64 4, ptr nonnull %2) #15
  store i32 0, ptr %2, align 4, !tbaa !17
  %3 = call i64 @rb_protect(ptr noundef nonnull @ossl_x509_ary2sk0, i64 noundef %0, ptr noundef nonnull %2) #15
  %4 = load i32, ptr %2, align 4, !tbaa !17
  %.not = icmp eq i32 %4, 0
  br i1 %.not, label %6, label %5

5:                                                ; preds = %1
  call void @rb_jump_tag(i32 noundef %4) #18
  unreachable

6:                                                ; preds = %1
  %7 = inttoptr i64 %3 to ptr
  call void @llvm.lifetime.end.p0(i64 4, ptr nonnull %2) #15
  ret ptr %7
}